; Function Attrs: nounwind uwtable
define internal noundef ptr @dir_get_file_name(ptr noundef readonly captures(none) %0, ptr noundef %1, ptr noundef %2) #0 {
  %4 = tail call ptr @pg_malloc0(i64 noundef 1024) #12
  %5 = getelementptr inbounds nuw i8, ptr %0, i64 8
  %6 = load i32, ptr %5, align 8
  %7 = icmp eq i32 %6, 1
  %8 = icmp eq i32 %6, 2
  %9 = select i1 %8, ptr @.str.8, ptr @.str.9
  %10 = select i1 %7, ptr @.str.7, ptr %9
  %.not = icmp eq ptr %2, null
  %11 = select i1 %.not, ptr @.str.9, ptr %2
  %12 = tail call i32 (ptr, i64, ptr, ...) @pg_snprintf(ptr noundef %4, i64 noundef 1024, ptr noundef nonnull @.str.6, ptr noundef %1, ptr noundef nonnull %10, ptr noundef nonnull %11) #12
  ret ptr %4
}